; Function Attrs: mustprogress nounwind uwtable
define internal void @"_ZN4absl12lts_2024072222internal_any_invocable22LocalManagerNontrivialIZN9grpc_core12_GLOBAL__N_135EventEngineClientChannelDNSResolver28EventEngineDNSRequestWrapperC1ENS3_13RefCountedPtrIS5_EESt10unique_ptrIN17grpc_event_engine12experimental11EventEngine11DNSResolverESt14default_deleteISD_EEE3$_0EEvNS1_14FunctionToCallEPNS1_15TypeErasedStateESK_"(i1 noundef zeroext %0, ptr noundef captures(none) %1, ptr noundef writeonly captures(none) %2) #8 personality ptr @__gxx_personality_v0 {
  br i1 %0, label %5, label %.thread

.thread:                                          ; preds = %3
  store ptr null, ptr %2, align 8, !tbaa !185
  %4 = load ptr, ptr %1, align 8, !tbaa !185
  store ptr %4, ptr %2, align 8, !tbaa !185
  store ptr null, ptr %1, align 8, !tbaa !185
  br label %"_ZZN9grpc_core12_GLOBAL__N_135EventEngineClientChannelDNSResolver28EventEngineDNSRequestWrapperC1ENS_13RefCountedPtrIS1_EESt10unique_ptrIN17grpc_event_engine12experimental11EventEngine11DNSResolverESt14default_deleteIS9_EEEN3$_0D2Ev.exit"

5:                                                ; preds = %3
  %.val.pr = load ptr, ptr %1, align 8, !tbaa !185
  %.not.i.i = icmp eq ptr %.val.pr, null
  br i1 %.not.i.i, label %"_ZZN9grpc_core12_GLOBAL__N_135EventEngineClientChannelDNSResolver28EventEngineDNSRequestWrapperC1ENS_13RefCountedPtrIS1_EESt10unique_ptrIN17grpc_event_engine12experimental11EventEngine11DNSResolverESt14default_deleteIS9_EEEN3$_0D2Ev.exit", label %6

6:                                                ; preds = %5
  %7 = getelementptr inbounds nuw i8, ptr %.val.pr, i64 8
  %8 = atomicrmw sub ptr %7, i64 1 acq_rel, align 8
  %9 = icmp eq i64 %8, 1
  br i1 %9, label %10, label %"_ZZN9grpc_core12_GLOBAL__N_135EventEngineClientChannelDNSResolver28EventEngineDNSRequestWrapperC1ENS_13RefCountedPtrIS1_EESt10unique_ptrIN17grpc_event_engine12experimental11EventEngine11DNSResolverESt14default_deleteIS9_EEEN3$_0D2Ev.exit", !prof !73

10:                                               ; preds = %6
  tail call void @_ZN9grpc_core12_GLOBAL__N_135EventEngineClientChannelDNSResolver28EventEngineDNSRequestWrapperD2Ev(ptr noundef nonnull align 8 dereferenceable(264) %.val.pr) #30
  tail call void @_ZdlPvm(ptr noundef nonnull align 8 dereferenceable(16) %.val.pr, i64 noundef 264) #34
  br label %"_ZZN9grpc_core12_GLOBAL__N_135EventEngineClientChannelDNSResolver28EventEngineDNSRequestWrapperC1ENS_13RefCountedPtrIS1_EESt10unique_ptrIN17grpc_event_engine12experimental11EventEngine11DNSResolverESt14default_deleteIS9_EEEN3$_0D2Ev.exit"

"_ZZN9grpc_core12_GLOBAL__N_135EventEngineClientChannelDNSResolver28EventEngineDNSRequestWrapperC1ENS_13RefCountedPtrIS1_EESt10unique_ptrIN17grpc_event_engine12experimental11EventEngine11DNSResolverESt14default_deleteIS9_EEEN3$_0D2Ev.exit": ; preds = %.thread, %5, %6, %10
  ret void
}